target datalayout = "e-m:e-p270:32:32-p271:32:32-p272:64:64-i64:64-i128:128-f80:128-n8:16:32:64-S128"
target triple = "x86_64-pc-linux-gnu"

%struct.ObjectAddress = type { i32, i32, i32 }

; Function Attrs: nounwind uwtable
define dso_local void @AcquireDeletionLock(ptr noundef %0, i32 noundef %1) #0 {
  %3 = alloca ptr, align 8
  %4 = alloca i32, align 4
  store ptr %0, ptr %3, align 8
  store i32 %1, ptr %4, align 4
  %5 = load ptr, ptr %3, align 8
  %6 = getelementptr inbounds nuw %struct.ObjectAddress, ptr %5, i32 0, i32 0
  %7 = load i32, ptr %6, align 4
  %8 = icmp eq i32 %7, 1259
  br i1 %8, label %9, label %22

9:                                                ; preds = %2
  %10 = load i32, ptr %4, align 4
  %11 = and i32 %10, 2
  %12 = icmp ne i32 %11, 0
  br i1 %12, label %13, label %17

13:                                               ; preds = %9
  %14 = load ptr, ptr %3, align 8
  %15 = getelementptr inbounds nuw %struct.ObjectAddress, ptr %14, i32 0, i32 1
  %16 = load i32, ptr %15, align 4
  call void @LockRelationOid(i32 noundef %16, i32 noundef 4)
  br label %21

17:                                               ; preds = %9
  %18 = load ptr, ptr %3, align 8
  %19 = getelementptr inbounds nuw %struct.ObjectAddress, ptr %18, i32 0, i32 1
  %20 = load i32, ptr %19, align 4
  call void @LockRelationOid(i32 noundef %20, i32 noundef 8)
  br label %21

21:                                               ; preds = %17, %13
  br label %42

22:                                               ; preds = %2
  %23 = load ptr, ptr %3, align 8
  %24 = getelementptr inbounds nuw %struct.ObjectAddress, ptr %23, i32 0, i32 0
  %25 = load i32, ptr %24, align 4
  %26 = icmp eq i32 %25, 1261
  br i1 %26, label %27, label %34

27:                                               ; preds = %22
  %28 = load ptr, ptr %3, align 8
  %29 = getelementptr inbounds nuw %struct.ObjectAddress, ptr %28, i32 0, i32 0
  %30 = load i32, ptr %29, align 4
  %31 = load ptr, ptr %3, align 8
  %32 = getelementptr inbounds nuw %struct.ObjectAddress, ptr %31, i32 0, i32 1
  %33 = load i32, ptr %32, align 4
  call void @LockSharedObject(i32 noundef %30, i32 noundef %33, i16 noundef zeroext 0, i32 noundef 8)
  br label %41

34:                                               ; preds = %22
  %35 = load ptr, ptr %3, align 8
  %36 = getelementptr inbounds nuw %struct.ObjectAddress, ptr %35, i32 0, i32 0
  %37 = load i32, ptr %36, align 4
  %38 = load ptr, ptr %3, align 8
  %39 = getelementptr inbounds nuw %struct.ObjectAddress, ptr %38, i32 0, i32 1
  %40 = load i32, ptr %39, align 4
  call void @LockDatabaseObject(i32 noundef %37, i32 noundef %40, i16 noundef zeroext 0, i32 noundef 8)
  br label %41

41:                                               ; preds = %34, %27
  br label %42

42:                                               ; preds = %41, %21
  ret void
}