; Function Attrs: nounwind uwtable
define dso_local void @AcquireDeletionLock(ptr noundef readonly captures(none) %0, i32 noundef %1) local_unnamed_addr #0 {
  %3 = load i32, ptr %0, align 4
  switch i32 %3, label %13 [
    i32 1259, label %4
    i32 1261, label %10
  ]

4:                                                ; preds = %2
  %5 = and i32 %1, 2
  %.not = icmp eq i32 %5, 0
  %6 = getelementptr inbounds nuw i8, ptr %0, i64 4
  %7 = load i32, ptr %6, align 4
  br i1 %.not, label %9, label %8

8:                                                ; preds = %4
  tail call void @LockRelationOid(i32 noundef %7, i32 noundef 4) #9
  br label %16

9:                                                ; preds = %4
  tail call void @LockRelationOid(i32 noundef %7, i32 noundef 8) #9
  br label %16

10:                                               ; preds = %2
  %11 = getelementptr inbounds nuw i8, ptr %0, i64 4
  %12 = load i32, ptr %11, align 4
  tail call void @LockSharedObject(i32 noundef 1261, i32 noundef %12, i16 noundef zeroext 0, i32 noundef 8) #9
  br label %16

13:                                               ; preds = %2
  %14 = getelementptr inbounds nuw i8, ptr %0, i64 4
  %15 = load i32, ptr %14, align 4
  tail call void @LockDatabaseObject(i32 noundef %3, i32 noundef %15, i16 noundef zeroext 0, i32 noundef 8) #9
  br label %16

16:                                               ; preds = %10, %13, %8, %9
  ret void
}